target datalayout = "e-m:e-p270:32:32-p271:32:32-p272:64:64-i64:64-i128:128-f80:128-n8:16:32:64-S128"
target triple = "x86_64-unknown-linux-gnu"

%struct.QTailQLink = type { ptr, ptr }
%struct.AddressSpace = type { %struct.rcu_head, ptr, ptr, ptr, i32, i32, ptr, %union.anon.18, %union.anon.19 }
%struct.rcu_head = type { ptr, ptr }
%union.anon.18 = type { %struct.QTailQLink }
%union.anon.19 = type { %struct.QTailQLink }
%struct.CPUAddressSpace = type { ptr, ptr, ptr, %struct.MemoryListener }
%struct.MemoryListener = type { ptr, ptr, ptr, ptr, ptr, ptr, ptr, ptr, ptr, ptr, ptr, ptr, ptr, ptr, ptr, ptr, ptr, i32, ptr, ptr, %union.anon.12, %union.anon.13 }
%union.anon.12 = type { %struct.QTailQLink }
%union.anon.13 = type { %struct.QTailQLink }
%struct.FlatView = type { %struct.rcu_head, i32, ptr, i32, i32, ptr, ptr }
%union.run_on_cpu_data = type { i64 }

@.str.79 = private unnamed_addr constant [100 x i8] c"/home/dtcxzyw/WorkSpace/Projects/compilers/llvm-opt-benchmark/bench/qemu/qemu/include/exec/memory.h\00", align 1
@__func__.address_space_to_flatview = private unnamed_addr constant [26 x i8] c"address_space_to_flatview\00", align 1

; Function Attrs: nounwind sspstrong uwtable
define internal ptr @flatview_to_dispatch(ptr noundef %fv) #0 {
entry:
  %fv.addr = alloca ptr, align 8
  store ptr %fv, ptr %fv.addr, align 8
  %0 = load ptr, ptr %fv.addr, align 8
  %dispatch = getelementptr inbounds %struct.FlatView, ptr %0, i32 0, i32 5
  %1 = load ptr, ptr %dispatch, align 8
  ret ptr %1
}

; Function Attrs: nounwind sspstrong uwtable
define internal ptr @address_space_to_flatview(ptr noundef %as) #0 {
entry:
  %as.addr = alloca ptr, align 8
  %_val0 = alloca ptr, align 8
  %tmp = alloca ptr, align 8
  store ptr %as, ptr %as.addr, align 8
  br label %while.cond

while.cond:                                       ; preds = %do.end, %entry
  br i1 false, label %while.body, label %while.end

while.body:                                       ; preds = %while.cond
  br label %do.body

do.body:                                          ; preds = %while.body
  call void @g_assertion_message_expr(ptr noundef null, ptr noundef @.str.79, i32 noundef 1146, ptr noundef @__func__.address_space_to_flatview, ptr noundef null) #14
  unreachable

do.end:                                           ; No predecessors!
  br label %while.cond

while.end:                                        ; preds = %while.cond
  %0 = load ptr, ptr %as.addr, align 8
  %current_map = getelementptr inbounds %struct.AddressSpace, ptr %0, i32 0, i32 3
  %1 = load atomic i64, ptr %current_map monotonic, align 8
  store i64 %1, ptr %_val0, align 8
  call void asm sideeffect "", "~{memory},~{dirflag},~{fpsr},~{flags}"() #15, !srcloc !7
  %2 = load ptr, ptr %_val0, align 8
  store ptr %2, ptr %tmp, align 8
  %3 = load ptr, ptr %tmp, align 8
  ret ptr %3
}

; Function Attrs: nounwind sspstrong uwtable
define internal ptr @address_space_to_dispatch(ptr noundef %as) #0 {
entry:
  %as.addr = alloca ptr, align 8
  store ptr %as, ptr %as.addr, align 8
  %0 = load ptr, ptr %as.addr, align 8
  %call = call ptr @address_space_to_flatview(ptr noundef %0)
  %call1 = call ptr @flatview_to_dispatch(ptr noundef %call)
  ret ptr %call1
}

; Function Attrs: nounwind sspstrong uwtable
define internal void @tcg_commit_cpu(ptr noundef %cpu, i64 %data.coerce) #0 {
entry:
  %data = alloca %union.run_on_cpu_data, align 8
  %cpu.addr = alloca ptr, align 8
  %cpuas = alloca ptr, align 8
  %coerce.dive = getelementptr inbounds %union.run_on_cpu_data, ptr %data, i32 0, i32 0
  store i64 %data.coerce, ptr %coerce.dive, align 8
  store ptr %cpu, ptr %cpu.addr, align 8
  %0 = load ptr, ptr %data, align 8
  store ptr %0, ptr %cpuas, align 8
  %1 = load ptr, ptr %cpuas, align 8
  %as = getelementptr inbounds %struct.CPUAddressSpace, ptr %1, i32 0, i32 1
  %2 = load ptr, ptr %as, align 8
  %call = call ptr @address_space_to_dispatch(ptr noundef %2)
  %3 = load ptr, ptr %cpuas, align 8
  %memory_dispatch = getelementptr inbounds %struct.CPUAddressSpace, ptr %3, i32 0, i32 2
  store ptr %call, ptr %memory_dispatch, align 8
  %4 = load ptr, ptr %cpu.addr, align 8
  call void @tlb_flush(ptr noundef %4)
  ret void
}