; Function Attrs: nounwind sspstrong uwtable
define internal void @tcg_commit_cpu(ptr noundef %cpu, i64 %data.coerce) #0 {
entry:
  %0 = inttoptr i64 %data.coerce to ptr
  %as = getelementptr inbounds nuw i8, ptr %0, i64 8
  %1 = load ptr, ptr %as, align 8
  %current_map.i.i = getelementptr inbounds nuw i8, ptr %1, i64 32
  %2 = load atomic i64, ptr %current_map.i.i monotonic, align 8
  %3 = inttoptr i64 %2 to ptr
  tail call void asm sideeffect "", "~{memory},~{dirflag},~{fpsr},~{flags}"() #28, !srcloc !7
  %4 = getelementptr i8, ptr %3, i64 40
  %call.val.i = load ptr, ptr %4, align 8
  %memory_dispatch = getelementptr inbounds nuw i8, ptr %0, i64 16
  store ptr %call.val.i, ptr %memory_dispatch, align 8
  tail call void @tlb_flush(ptr noundef %cpu) #28
  ret void
}